target datalayout = "e-m:e-p270:32:32-p271:32:32-p272:64:64-i64:64-i128:128-f80:128-n8:16:32:64-S128"
target triple = "x86_64-pc-linux-gnu"

%struct.expert_field = type { i32, i32 }

@hf_telnet_enc_cmd = internal global i32 0, align 4
@hf_telnet_enc_type = internal global i32 0, align 4
@hf_telnet_enc_type_data = internal global i32 0, align 4
@hf_telnet_enc_key_id = internal global i32 0, align 4
@.str.78 = private unnamed_addr constant [7 x i8] c"Key ID\00", align 1
@ei_telnet_enc_cmd_unknown = internal global %struct.expert_field zeroinitializer, align 4
@.str.384 = private unnamed_addr constant [12 x i8] c"Default key\00", align 1
@.str.385 = private unnamed_addr constant [18 x i8] c"Key ID (advisory)\00", align 1

; Function Attrs: null_pointer_is_valid sspstrong uwtable
define internal void @dissect_encryption_type(ptr noundef %0, i32 noundef %1, ptr noundef %2) #0 {
  %4 = alloca ptr, align 8
  %5 = alloca i32, align 4
  %6 = alloca ptr, align 8
  %7 = alloca i8, align 1
  store ptr %0, ptr %4, align 8
  store i32 %1, ptr %5, align 4
  store ptr %2, ptr %6, align 8
  call void @llvm.lifetime.start.p0(i64 1, ptr %7) #7
  %8 = load ptr, ptr %4, align 8
  %9 = load i32, ptr %5, align 4
  %10 = call zeroext i8 @tvb_get_uint8(ptr noundef %8, i32 noundef %9)
  store i8 %10, ptr %7, align 1
  %11 = load ptr, ptr %6, align 8
  %12 = load i32, ptr @hf_telnet_enc_type, align 4
  %13 = load ptr, ptr %4, align 8
  %14 = load i32, ptr %5, align 4
  %15 = load i8, ptr %7, align 1
  %16 = zext i8 %15 to i32
  %17 = call ptr @proto_tree_add_uint(ptr noundef %11, i32 noundef %12, ptr noundef %13, i32 noundef %14, i32 noundef 1, i32 noundef %16)
  call void @llvm.lifetime.end.p0(i64 1, ptr %7) #7
  ret void
}

; Function Attrs: null_pointer_is_valid sspstrong uwtable
define internal void @dissect_encryption_subopt(ptr noundef %0, ptr noundef %1, ptr noundef %2, i32 noundef %3, i32 noundef %4, ptr noundef %5, ptr noundef %6) #0 {
  %8 = alloca ptr, align 8
  %9 = alloca ptr, align 8
  %10 = alloca ptr, align 8
  %11 = alloca i32, align 4
  %12 = alloca i32, align 4
  %13 = alloca ptr, align 8
  %14 = alloca ptr, align 8
  %15 = alloca i8, align 1
  %16 = alloca i8, align 1
  store ptr %0, ptr %8, align 8
  store ptr %1, ptr %9, align 8
  store ptr %2, ptr %10, align 8
  store i32 %3, ptr %11, align 4
  store i32 %4, ptr %12, align 4
  store ptr %5, ptr %13, align 8
  store ptr %6, ptr %14, align 8
  call void @llvm.lifetime.start.p0(i64 1, ptr %15) #7
  call void @llvm.lifetime.start.p0(i64 1, ptr %16) #7
  %17 = load ptr, ptr %10, align 8
  %18 = load i32, ptr %11, align 4
  %19 = call zeroext i8 @tvb_get_uint8(ptr noundef %17, i32 noundef %18)
  store i8 %19, ptr %15, align 1
  %20 = load ptr, ptr %13, align 8
  %21 = load i32, ptr @hf_telnet_enc_cmd, align 4
  %22 = load ptr, ptr %10, align 8
  %23 = load i32, ptr %11, align 4
  %24 = load i8, ptr %15, align 1
  %25 = zext i8 %24 to i32
  %26 = call ptr @proto_tree_add_uint(ptr noundef %20, i32 noundef %21, ptr noundef %22, i32 noundef %23, i32 noundef 1, i32 noundef %25)
  %27 = load i32, ptr %11, align 4
  %28 = add i32 %27, 1
  store i32 %28, ptr %11, align 4
  %29 = load i32, ptr %12, align 4
  %30 = add i32 %29, -1
  store i32 %30, ptr %12, align 4
  %31 = load i8, ptr %15, align 1
  %32 = zext i8 %31 to i32
  switch i32 %32, label %104 [
    i32 0, label %33
    i32 2, label %33
    i32 1, label %51
    i32 3, label %64
    i32 4, label %108
    i32 5, label %82
    i32 6, label %108
    i32 7, label %93
    i32 8, label %93
  ]

33:                                               ; preds = %7, %7
  %34 = load i32, ptr %12, align 4
  %35 = icmp sgt i32 %34, 0
  br i1 %35, label %36, label %50

36:                                               ; preds = %33
  %37 = load ptr, ptr %10, align 8
  %38 = load i32, ptr %11, align 4
  %39 = load ptr, ptr %13, align 8
  call void @dissect_encryption_type(ptr noundef %37, i32 noundef %38, ptr noundef %39)
  %40 = load i32, ptr %11, align 4
  %41 = add i32 %40, 1
  store i32 %41, ptr %11, align 4
  %42 = load i32, ptr %12, align 4
  %43 = add i32 %42, -1
  store i32 %43, ptr %12, align 4
  %44 = load ptr, ptr %13, align 8
  %45 = load i32, ptr @hf_telnet_enc_type_data, align 4
  %46 = load ptr, ptr %10, align 8
  %47 = load i32, ptr %11, align 4
  %48 = load i32, ptr %12, align 4
  %49 = call ptr @proto_tree_add_item(ptr noundef %44, i32 noundef %45, ptr noundef %46, i32 noundef %47, i32 noundef %48, i32 noundef 0)
  br label %50

50:                                               ; preds = %36, %33
  br label %108

51:                                               ; preds = %7
  br label %52

52:                                               ; preds = %55, %51
  %53 = load i32, ptr %12, align 4
  %54 = icmp sgt i32 %53, 0
  br i1 %54, label %55, label %63

55:                                               ; preds = %52
  %56 = load ptr, ptr %10, align 8
  %57 = load i32, ptr %11, align 4
  %58 = load ptr, ptr %13, align 8
  call void @dissect_encryption_type(ptr noundef %56, i32 noundef %57, ptr noundef %58)
  %59 = load i32, ptr %11, align 4
  %60 = add i32 %59, 1
  store i32 %60, ptr %11, align 4
  %61 = load i32, ptr %12, align 4
  %62 = add i32 %61, -1
  store i32 %62, ptr %12, align 4
  br label %52, !llvm.loop !18

63:                                               ; preds = %52
  br label %108

64:                                               ; preds = %7
  %65 = load i32, ptr %12, align 4
  %66 = icmp sgt i32 %65, 0
  br i1 %66, label %67, label %81

67:                                               ; preds = %64
  %68 = load ptr, ptr %10, align 8
  %69 = load i32, ptr %11, align 4
  %70 = call zeroext i8 @tvb_get_uint8(ptr noundef %68, i32 noundef %69)
  store i8 %70, ptr %16, align 1
  %71 = load ptr, ptr %13, align 8
  %72 = load i32, ptr @hf_telnet_enc_key_id, align 4
  %73 = load ptr, ptr %10, align 8
  %74 = load i32, ptr %11, align 4
  %75 = load i32, ptr %12, align 4
  %76 = load i8, ptr %16, align 1
  %77 = zext i8 %76 to i32
  %78 = icmp eq i32 %77, 0
  %79 = select i1 %78, ptr @.str.384, ptr @.str.78
  %80 = call ptr (ptr, i32, ptr, i32, i32, ptr, ptr, ...) @proto_tree_add_bytes_format(ptr noundef %71, i32 noundef %72, ptr noundef %73, i32 noundef %74, i32 noundef %75, ptr noundef null, ptr noundef %79)
  br label %81

81:                                               ; preds = %67, %64
  br label %108

82:                                               ; preds = %7
  %83 = load i32, ptr %12, align 4
  %84 = icmp sgt i32 %83, 0
  br i1 %84, label %85, label %92

85:                                               ; preds = %82
  %86 = load ptr, ptr %13, align 8
  %87 = load i32, ptr @hf_telnet_enc_key_id, align 4
  %88 = load ptr, ptr %10, align 8
  %89 = load i32, ptr %11, align 4
  %90 = load i32, ptr %12, align 4
  %91 = call ptr (ptr, i32, ptr, i32, i32, ptr, ptr, ...) @proto_tree_add_bytes_format(ptr noundef %86, i32 noundef %87, ptr noundef %88, i32 noundef %89, i32 noundef %90, ptr noundef null, ptr noundef @.str.385)
  br label %92

92:                                               ; preds = %85, %82
  br label %108

93:                                               ; preds = %7, %7
  %94 = load i32, ptr %12, align 4
  %95 = icmp sgt i32 %94, 0
  br i1 %95, label %96, label %103

96:                                               ; preds = %93
  %97 = load ptr, ptr %13, align 8
  %98 = load i32, ptr @hf_telnet_enc_key_id, align 4
  %99 = load ptr, ptr %10, align 8
  %100 = load i32, ptr %11, align 4
  %101 = load i32, ptr %12, align 4
  %102 = call ptr @proto_tree_add_item(ptr noundef %97, i32 noundef %98, ptr noundef %99, i32 noundef %100, i32 noundef %101, i32 noundef 0)
  br label %103

103:                                              ; preds = %96, %93
  br label %108

104:                                              ; preds = %7
  %105 = load ptr, ptr %8, align 8
  %106 = load ptr, ptr %14, align 8
  %107 = call ptr @expert_add_info(ptr noundef %105, ptr noundef %106, ptr noundef @ei_telnet_enc_cmd_unknown)
  br label %108

108:                                              ; preds = %104, %103, %7, %92, %7, %81, %63, %50
  call void @llvm.lifetime.end.p0(i64 1, ptr %16) #7
  call void @llvm.lifetime.end.p0(i64 1, ptr %15) #7
  ret void
}