; Function Attrs: null_pointer_is_valid sspstrong uwtable
define internal void @dissect_encryption_subopt(ptr noundef %0, ptr readnone captures(none) %1, ptr noundef %2, i32 noundef %3, i32 noundef %4, ptr noundef %5, ptr noundef %6) #0 {
  %8 = tail call zeroext i8 @tvb_get_uint8(ptr noundef %2, i32 noundef %3)
  %9 = load i32, ptr @hf_telnet_enc_cmd, align 4
  %10 = zext i8 %8 to i32
  %11 = tail call ptr @proto_tree_add_uint(ptr noundef %5, i32 noundef %9, ptr noundef %2, i32 noundef %3, i32 noundef 1, i32 noundef %10)
  %12 = add i32 %3, 1
  %13 = add i32 %4, -1
  switch i8 %8, label %51 [
    i8 0, label %15
    i8 2, label %15
    i8 1, label %.preheader
    i8 3, label %33
    i8 4, label %.loopexit
    i8 5, label %41
    i8 6, label %.loopexit
    i8 7, label %46
    i8 8, label %46
  ]

.preheader:                                       ; preds = %7
  %14 = icmp sgt i32 %13, 0
  br i1 %14, label %.lr.ph, label %.loopexit

15:                                               ; preds = %7, %7
  %16 = icmp sgt i32 %13, 0
  br i1 %16, label %17, label %.loopexit

17:                                               ; preds = %15
  %18 = tail call zeroext i8 @tvb_get_uint8(ptr noundef %2, i32 noundef %12)
  %19 = load i32, ptr @hf_telnet_enc_type, align 4
  %20 = zext i8 %18 to i32
  %21 = tail call ptr @proto_tree_add_uint(ptr noundef %5, i32 noundef %19, ptr noundef %2, i32 noundef %12, i32 noundef 1, i32 noundef %20)
  %22 = add i32 %3, 2
  %23 = add i32 %4, -2
  %24 = load i32, ptr @hf_telnet_enc_type_data, align 4
  %25 = tail call ptr @proto_tree_add_item(ptr noundef %5, i32 noundef %24, ptr noundef %2, i32 noundef %22, i32 noundef %23, i32 noundef 0)
  br label %.loopexit

.lr.ph:                                           ; preds = %.preheader, %.lr.ph
  %.047 = phi i32 [ %30, %.lr.ph ], [ %12, %.preheader ]
  %.04446 = phi i32 [ %31, %.lr.ph ], [ %13, %.preheader ]
  %26 = tail call zeroext i8 @tvb_get_uint8(ptr noundef %2, i32 noundef %.047)
  %27 = load i32, ptr @hf_telnet_enc_type, align 4
  %28 = zext i8 %26 to i32
  %29 = tail call ptr @proto_tree_add_uint(ptr noundef %5, i32 noundef %27, ptr noundef %2, i32 noundef %.047, i32 noundef 1, i32 noundef %28)
  %30 = add i32 %.047, 1
  %31 = add nsw i32 %.04446, -1
  %32 = icmp samesign ugt i32 %.04446, 1
  br i1 %32, label %.lr.ph, label %.loopexit, !llvm.loop !17

33:                                               ; preds = %7
  %34 = icmp sgt i32 %13, 0
  br i1 %34, label %35, label %.loopexit

35:                                               ; preds = %33
  %36 = tail call zeroext i8 @tvb_get_uint8(ptr noundef %2, i32 noundef %12)
  %37 = load i32, ptr @hf_telnet_enc_key_id, align 4
  %38 = icmp eq i8 %36, 0
  %39 = select i1 %38, ptr @.str.384, ptr @.str.78
  %40 = tail call ptr (ptr, i32, ptr, i32, i32, ptr, ptr, ...) @proto_tree_add_bytes_format(ptr noundef %5, i32 noundef %37, ptr noundef %2, i32 noundef %12, i32 noundef %13, ptr noundef null, ptr noundef nonnull %39)
  br label %.loopexit

41:                                               ; preds = %7
  %42 = icmp sgt i32 %13, 0
  br i1 %42, label %43, label %.loopexit

43:                                               ; preds = %41
  %44 = load i32, ptr @hf_telnet_enc_key_id, align 4
  %45 = tail call ptr (ptr, i32, ptr, i32, i32, ptr, ptr, ...) @proto_tree_add_bytes_format(ptr noundef %5, i32 noundef %44, ptr noundef %2, i32 noundef %12, i32 noundef %13, ptr noundef null, ptr noundef nonnull @.str.385)
  br label %.loopexit

46:                                               ; preds = %7, %7
  %47 = icmp sgt i32 %13, 0
  br i1 %47, label %48, label %.loopexit

48:                                               ; preds = %46
  %49 = load i32, ptr @hf_telnet_enc_key_id, align 4
  %50 = tail call ptr @proto_tree_add_item(ptr noundef %5, i32 noundef %49, ptr noundef %2, i32 noundef %12, i32 noundef %13, i32 noundef 0)
  br label %.loopexit

51:                                               ; preds = %7
  %52 = tail call ptr @expert_add_info(ptr noundef %0, ptr noundef %6, ptr noundef nonnull @ei_telnet_enc_cmd_unknown)
  br label %.loopexit

.loopexit:                                        ; preds = %.lr.ph, %.preheader, %46, %48, %41, %43, %33, %35, %15, %17, %51, %7, %7
  ret void
}